target datalayout = "e-m:e-p270:32:32-p271:32:32-p272:64:64-i64:64-i128:128-f80:128-n8:16:32:64-S128"
target triple = "x86_64-pc-linux-gnu"

%struct.bignum_st = type { ptr, i32, i32, i32, i32 }

; Function Attrs: nounwind uwtable
define hidden void @bn_correct_top(ptr noundef %0) #0 {
  %2 = alloca ptr, align 8
  %3 = alloca ptr, align 8
  %4 = alloca i32, align 4
  store ptr %0, ptr %2, align 8, !tbaa !6
  call void @llvm.lifetime.start.p0(i64 8, ptr %3) #7
  call void @llvm.lifetime.start.p0(i64 4, ptr %4) #7
  %5 = load ptr, ptr %2, align 8, !tbaa !6
  %6 = getelementptr inbounds nuw %struct.bignum_st, ptr %5, i32 0, i32 1
  %7 = load i32, ptr %6, align 8, !tbaa !18
  store i32 %7, ptr %4, align 4, !tbaa !23
  %8 = load i32, ptr %4, align 4, !tbaa !23
  %9 = icmp sgt i32 %8, 0
  br i1 %9, label %10, label %35

10:                                               ; preds = %1
  %11 = load ptr, ptr %2, align 8, !tbaa !6
  %12 = getelementptr inbounds nuw %struct.bignum_st, ptr %11, i32 0, i32 0
  %13 = load ptr, ptr %12, align 8, !tbaa !15
  %14 = load i32, ptr %4, align 4, !tbaa !23
  %15 = sub nsw i32 %14, 1
  %16 = sext i32 %15 to i64
  %17 = getelementptr inbounds i64, ptr %13, i64 %16
  store ptr %17, ptr %3, align 8, !tbaa !22
  br label %18

18:                                               ; preds = %28, %10
  %19 = load i32, ptr %4, align 4, !tbaa !23
  %20 = icmp sgt i32 %19, 0
  br i1 %20, label %21, label %31

21:                                               ; preds = %18
  %22 = load ptr, ptr %3, align 8, !tbaa !22
  %23 = getelementptr inbounds i64, ptr %22, i32 -1
  store ptr %23, ptr %3, align 8, !tbaa !22
  %24 = load i64, ptr %22, align 8, !tbaa !20
  %25 = icmp ne i64 %24, 0
  br i1 %25, label %26, label %27

26:                                               ; preds = %21
  br label %31

27:                                               ; preds = %21
  br label %28

28:                                               ; preds = %27
  %29 = load i32, ptr %4, align 4, !tbaa !23
  %30 = add nsw i32 %29, -1
  store i32 %30, ptr %4, align 4, !tbaa !23
  br label %18, !llvm.loop !24

31:                                               ; preds = %26, %18
  %32 = load i32, ptr %4, align 4, !tbaa !23
  %33 = load ptr, ptr %2, align 8, !tbaa !6
  %34 = getelementptr inbounds nuw %struct.bignum_st, ptr %33, i32 0, i32 1
  store i32 %32, ptr %34, align 8, !tbaa !18
  br label %35

35:                                               ; preds = %31, %1
  call void @llvm.lifetime.end.p0(i64 4, ptr %4) #7
  call void @llvm.lifetime.end.p0(i64 8, ptr %3) #7
  ret void
}

; Function Attrs: nounwind uwtable
define hidden i32 @bn_set_words(ptr noundef %0, ptr noundef %1, i64 noundef %2) #0 {
  %4 = alloca i32, align 4
  %5 = alloca ptr, align 8
  %6 = alloca ptr, align 8
  %7 = alloca i64, align 8
  store ptr %0, ptr %5, align 8, !tbaa !6
  store ptr %1, ptr %6, align 8, !tbaa !22
  store i64 %2, ptr %7, align 8, !tbaa !20
  %8 = load ptr, ptr %5, align 8, !tbaa !6
  %9 = load i64, ptr %7, align 8, !tbaa !20
  %10 = call ptr @bn_wexpand(ptr noundef %8, i64 noundef %9)
  %11 = icmp eq ptr %10, null
  br i1 %11, label %12, label %13

12:                                               ; preds = %3
  store i32 0, ptr %4, align 4
  br label %27

13:                                               ; preds = %3
  %14 = load ptr, ptr %5, align 8, !tbaa !6
  %15 = getelementptr inbounds nuw %struct.bignum_st, ptr %14, i32 0, i32 0
  %16 = load ptr, ptr %15, align 8, !tbaa !15
  %17 = load ptr, ptr %6, align 8, !tbaa !22
  %18 = load i64, ptr %7, align 8, !tbaa !20
  %19 = mul i64 %18, 8
  call void @llvm.memmove.p0.p0.i64(ptr align 8 %16, ptr align 8 %17, i64 %19, i1 false)
  %20 = load i64, ptr %7, align 8, !tbaa !20
  %21 = trunc i64 %20 to i32
  %22 = load ptr, ptr %5, align 8, !tbaa !6
  %23 = getelementptr inbounds nuw %struct.bignum_st, ptr %22, i32 0, i32 1
  store i32 %21, ptr %23, align 8, !tbaa !18
  %24 = load ptr, ptr %5, align 8, !tbaa !6
  call void @bn_correct_top(ptr noundef %24)
  %25 = load ptr, ptr %5, align 8, !tbaa !6
  %26 = getelementptr inbounds nuw %struct.bignum_st, ptr %25, i32 0, i32 3
  store i32 0, ptr %26, align 8, !tbaa !19
  store i32 1, ptr %4, align 4
  br label %27

27:                                               ; preds = %13, %12
  %28 = load i32, ptr %4, align 4
  ret i32 %28
}