; Function Attrs: nounwind uwtable
define hidden range(i32 0, 2) i32 @bn_set_words(ptr noundef captures(address) %0, ptr noundef readonly captures(none) %1, i64 noundef %2) local_unnamed_addr #0 {
  %4 = tail call ptr @bn_wexpand(ptr noundef %0, i64 noundef %2)
  %5 = icmp eq ptr %4, null
  br i1 %5, label %23, label %6

6:                                                ; preds = %3
  %7 = load ptr, ptr %0, align 8, !tbaa !13
  %8 = shl i64 %2, 3
  tail call void @llvm.memmove.p0.p0.i64(ptr align 8 %7, ptr align 8 %1, i64 %8, i1 false)
  %9 = trunc i64 %2 to i32
  %10 = getelementptr inbounds nuw i8, ptr %0, i64 8
  store i32 %9, ptr %10, align 8, !tbaa !15
  %11 = icmp sgt i32 %9, 0
  br i1 %11, label %12, label %bn_correct_top.exit

12:                                               ; preds = %6
  %13 = load ptr, ptr %0, align 8, !tbaa !13
  %14 = and i64 %2, 2147483647
  %15 = getelementptr i64, ptr %13, i64 %14
  br label %16

16:                                               ; preds = %18, %12
  %.pn.i = phi ptr [ %15, %12 ], [ %.0812.i, %18 ]
  %.011.i = phi i32 [ %9, %12 ], [ %19, %18 ]
  %.0812.i = getelementptr i8, ptr %.pn.i, i64 -8
  %17 = load i64, ptr %.0812.i, align 8, !tbaa !18
  %.not.i = icmp eq i64 %17, 0
  br i1 %.not.i, label %18, label %21

18:                                               ; preds = %16
  %19 = add nsw i32 %.011.i, -1
  %20 = icmp sgt i32 %.011.i, 1
  br i1 %20, label %16, label %21, !llvm.loop !20

21:                                               ; preds = %18, %16
  %.0.lcssa.i = phi i32 [ %.011.i, %16 ], [ 0, %18 ]
  store i32 %.0.lcssa.i, ptr %10, align 8, !tbaa !15
  br label %bn_correct_top.exit

bn_correct_top.exit:                              ; preds = %6, %21
  %22 = getelementptr inbounds nuw i8, ptr %0, i64 16
  store i32 0, ptr %22, align 8, !tbaa !16
  br label %23

23:                                               ; preds = %3, %bn_correct_top.exit
  %.0 = phi i32 [ 1, %bn_correct_top.exit ], [ 0, %3 ]
  ret i32 %.0
}